; Function Attrs: nounwind uwtable
define void @Map_MappingUnmark_rec(ptr noundef %0) local_unnamed_addr #0 {
  br label %tailrecurse

tailrecurse:                                      ; preds = %9, %1
  %.tr = phi ptr [ %0, %1 ], [ %21, %9 ]
  %2 = getelementptr inbounds nuw i8, ptr %.tr, i64 28
  %3 = load i32, ptr %2, align 4
  %4 = and i32 %3, 1
  %5 = icmp eq i32 %4, 0
  br i1 %5, label %22, label %6

6:                                                ; preds = %tailrecurse
  %7 = and i32 %3, -2
  store i32 %7, ptr %2, align 4
  %8 = tail call i32 @Map_NodeIsAnd(ptr noundef nonnull %.tr) #16
  %.not = icmp eq i32 %8, 0
  br i1 %.not, label %22, label %9

9:                                                ; preds = %6
  %10 = getelementptr inbounds nuw i8, ptr %.tr, i64 64
  %11 = load ptr, ptr %10, align 8, !tbaa !3
  %12 = ptrtoint ptr %11 to i64
  %13 = and i64 %12, -2
  %14 = inttoptr i64 %13 to ptr
  tail call void @Map_MappingUnmark_rec(ptr noundef %14)
  %15 = getelementptr inbounds nuw i8, ptr %.tr, i64 72
  %16 = load ptr, ptr %15, align 8, !tbaa !14
  %17 = ptrtoint ptr %16 to i64
  %18 = and i64 %17, -2
  %19 = inttoptr i64 %18 to ptr
  tail call void @Map_MappingUnmark_rec(ptr noundef %19)
  %20 = getelementptr inbounds nuw i8, ptr %.tr, i64 80
  %21 = load ptr, ptr %20, align 8, !tbaa !15
  %.not7 = icmp eq ptr %21, null
  br i1 %.not7, label %22, label %tailrecurse

22:                                               ; preds = %6, %tailrecurse, %9
  ret void
}